; Function Attrs: nounwind uwtable
define ptr @l_Lean_Compiler_LCNF_eraseCodeDecl___boxed(ptr noundef %0, ptr noundef %1, ptr noundef %2, ptr noundef %3, ptr noundef %4, ptr noundef %5) local_unnamed_addr #2 {
  %7 = ptrtoint ptr %0 to i64
  %8 = and i64 %7, 1
  %.not.i.i = icmp eq i64 %8, 0
  br i1 %.not.i.i, label %12, label %9

9:                                                ; preds = %6
  %10 = lshr i64 %7, 1
  %11 = trunc i64 %10 to i32
  br label %lean_obj_tag.exit.i

12:                                               ; preds = %6
  %13 = getelementptr i8, ptr %0, i64 4
  %.val.i.i = load i32, ptr %13, align 4
  %14 = lshr i32 %.val.i.i, 24
  br label %lean_obj_tag.exit.i

lean_obj_tag.exit.i:                              ; preds = %12, %9
  %.0.i.i = phi i32 [ %11, %9 ], [ %14, %12 ]
  %15 = icmp eq i32 %.0.i.i, 0
  %16 = getelementptr inbounds nuw i8, ptr %0, i64 8
  %17 = load ptr, ptr %16, align 8, !tbaa !4
  br i1 %15, label %18, label %20

18:                                               ; preds = %lean_obj_tag.exit.i
  %19 = tail call ptr @l_Lean_Compiler_LCNF_eraseLetDecl(ptr noundef %17, ptr readnone poison, ptr noundef %2, ptr readnone poison, ptr readnone poison, ptr noundef %5)
  br label %l_Lean_Compiler_LCNF_eraseCodeDecl.exit

20:                                               ; preds = %lean_obj_tag.exit.i
  %21 = tail call ptr @l_Lean_Compiler_LCNF_eraseFunDecl(ptr noundef %17, i8 noundef zeroext 1, ptr readnone poison, ptr noundef %2, ptr readnone poison, ptr readnone poison, ptr noundef %5)
  br label %l_Lean_Compiler_LCNF_eraseCodeDecl.exit

l_Lean_Compiler_LCNF_eraseCodeDecl.exit:          ; preds = %18, %20
  %.0.i = phi ptr [ %19, %18 ], [ %21, %20 ]
  %22 = ptrtoint ptr %4 to i64
  %23 = and i64 %22, 1
  %.not = icmp eq i64 %23, 0
  br i1 %.not, label %24, label %lean_dec.exit15

24:                                               ; preds = %l_Lean_Compiler_LCNF_eraseCodeDecl.exit
  %25 = load i32, ptr %4, align 4, !tbaa !8
  %26 = icmp sgt i32 %25, 1
  br i1 %26, label %27, label %29, !prof !11

27:                                               ; preds = %24
  %28 = add nsw i32 %25, -1
  store i32 %28, ptr %4, align 4, !tbaa !8
  br label %lean_dec.exit15

29:                                               ; preds = %24
  %.not.i = icmp eq i32 %25, 0
  br i1 %.not.i, label %lean_dec.exit15, label %30

30:                                               ; preds = %29
  tail call void @lean_dec_ref_cold(ptr noundef nonnull %4) #6
  br label %lean_dec.exit15

lean_dec.exit15:                                  ; preds = %30, %29, %27, %l_Lean_Compiler_LCNF_eraseCodeDecl.exit
  %31 = ptrtoint ptr %3 to i64
  %32 = and i64 %31, 1
  %.not24 = icmp eq i64 %32, 0
  br i1 %.not24, label %33, label %lean_dec.exit14

33:                                               ; preds = %lean_dec.exit15
  %34 = load i32, ptr %3, align 4, !tbaa !8
  %35 = icmp sgt i32 %34, 1
  br i1 %35, label %36, label %38, !prof !11

36:                                               ; preds = %33
  %37 = add nsw i32 %34, -1
  store i32 %37, ptr %3, align 4, !tbaa !8
  br label %lean_dec.exit14

38:                                               ; preds = %33
  %.not.i16 = icmp eq i32 %34, 0
  br i1 %.not.i16, label %lean_dec.exit14, label %39

39:                                               ; preds = %38
  tail call void @lean_dec_ref_cold(ptr noundef nonnull %3) #6
  br label %lean_dec.exit14

lean_dec.exit14:                                  ; preds = %39, %38, %36, %lean_dec.exit15
  %40 = ptrtoint ptr %2 to i64
  %41 = and i64 %40, 1
  %.not25 = icmp eq i64 %41, 0
  br i1 %.not25, label %42, label %lean_dec.exit13

42:                                               ; preds = %lean_dec.exit14
  %43 = load i32, ptr %2, align 4, !tbaa !8
  %44 = icmp sgt i32 %43, 1
  br i1 %44, label %45, label %47, !prof !11

45:                                               ; preds = %42
  %46 = add nsw i32 %43, -1
  store i32 %46, ptr %2, align 4, !tbaa !8
  br label %lean_dec.exit13

47:                                               ; preds = %42
  %.not.i18 = icmp eq i32 %43, 0
  br i1 %.not.i18, label %lean_dec.exit13, label %48

48:                                               ; preds = %47
  tail call void @lean_dec_ref_cold(ptr noundef nonnull %2) #6
  br label %lean_dec.exit13

lean_dec.exit13:                                  ; preds = %48, %47, %45, %lean_dec.exit14
  %49 = ptrtoint ptr %1 to i64
  %50 = and i64 %49, 1
  %.not26 = icmp eq i64 %50, 0
  br i1 %.not26, label %51, label %lean_dec.exit12

51:                                               ; preds = %lean_dec.exit13
  %52 = load i32, ptr %1, align 4, !tbaa !8
  %53 = icmp sgt i32 %52, 1
  br i1 %53, label %54, label %56, !prof !11

54:                                               ; preds = %51
  %55 = add nsw i32 %52, -1
  store i32 %55, ptr %1, align 4, !tbaa !8
  br label %lean_dec.exit12

56:                                               ; preds = %51
  %.not.i20 = icmp eq i32 %52, 0
  br i1 %.not.i20, label %lean_dec.exit12, label %57

57:                                               ; preds = %56
  tail call void @lean_dec_ref_cold(ptr noundef nonnull %1) #6
  br label %lean_dec.exit12

lean_dec.exit12:                                  ; preds = %57, %56, %54, %lean_dec.exit13
  br i1 %.not.i.i, label %58, label %lean_dec.exit

58:                                               ; preds = %lean_dec.exit12
  %59 = load i32, ptr %0, align 4, !tbaa !8
  %60 = icmp sgt i32 %59, 1
  br i1 %60, label %61, label %63, !prof !11

61:                                               ; preds = %58
  %62 = add nsw i32 %59, -1
  store i32 %62, ptr %0, align 4, !tbaa !8
  br label %lean_dec.exit

63:                                               ; preds = %58
  %.not.i22 = icmp eq i32 %59, 0
  br i1 %.not.i22, label %lean_dec.exit, label %64

64:                                               ; preds = %63
  tail call void @lean_dec_ref_cold(ptr noundef nonnull %0) #6
  br label %lean_dec.exit

lean_dec.exit:                                    ; preds = %64, %63, %61, %lean_dec.exit12
  ret ptr %.0.i
}